; Function Attrs: mustprogress nofree norecurse nosync nounwind memory(readwrite, inaccessiblemem: none) uwtable
define dso_local void @_Z10drawImage4RN7Imf_3_47Array2DINS_4RgbaEEEiiiiiiii(ptr noundef nonnull readonly align 8 captures(none) dereferenceable(24) %0, i32 noundef %1, i32 noundef %2, i32 noundef %3, i32 noundef %4, i32 noundef %5, i32 noundef %6, i32 noundef %7, i32 noundef %8) local_unnamed_addr #6 {
  %10 = shl nuw i32 1, %7
  %11 = shl nuw i32 1, %8
  %12 = sitofp i32 %11 to double
  %13 = sitofp i32 %10 to double
  %14 = fdiv double %12, %13
  %15 = getelementptr inbounds nuw i8, ptr %0, i64 8
  %.val = load i64, ptr %15, align 8
  %16 = getelementptr inbounds nuw i8, ptr %0, i64 16
  %.val10 = load ptr, ptr %16, align 8
  tail call fastcc void @_ZN12_GLOBAL__N_14mndlIN7Imf_3_44RgbaEEEvRNS1_7Array2DIT_EEiiiiiiiidddddd(i64 %.val, ptr %.val10, i32 noundef %1, i32 noundef %2, i32 noundef %3, i32 noundef %4, i32 noundef %5, i32 noundef %6, i32 noundef %10, i32 noundef %11, double noundef 3.247000e-01, double noundef 3.334800e-01, double noundef 4.346000e-01, double noundef %14, double noundef 4.000000e-01, double noundef -7.650000e-01)
  ret void
}